target datalayout = "e-m:e-p270:32:32-p271:32:32-p272:64:64-i64:64-i128:128-f80:128-n8:16:32:64-S128"
target triple = "x86_64-pc-linux-gnu"

%class.Compilation = type { ptr, i32, i32, ptr, ptr, ptr, ptr, ptr, i32, ptr, i32, ptr, ptr, i8, i8, i8, i8, i8, i8, i8, i8, i8, ptr, ptr, i8, ptr, %class.ExceptionHandlerTable, %class.ImplicitExceptionTable, ptr, %class.CodeOffsets, %class.CodeBuffer, i8, i32, i32, ptr }
%class.ExceptionHandlerTable = type <{ ptr, i32, i32, %class.ReallocMark, [7 x i8] }>
%class.ReallocMark = type { i8 }
%class.ImplicitExceptionTable = type <{ i32, i32, ptr, %class.ReallocMark, [7 x i8] }>
%class.CodeOffsets = type { [8 x i32] }
%class.CodeBuffer = type { ptr, %class.CodeSection, %class.CodeSection, %class.CodeSection, ptr, ptr, ptr, i32, ptr, %class.OopRecorder, ptr, ptr, ptr, ptr, ptr, i8, i32 }
%class.CodeSection = type { ptr, ptr, ptr, ptr, ptr, ptr, ptr, ptr, i8, i8, i32, i8, ptr }
%class.OopRecorder = type { %class.ValueRecorder, %class.ValueRecorder.0, ptr }
%class.ValueRecorder = type <{ ptr, ptr, ptr, ptr, i8, [7 x i8] }>
%class.ValueRecorder.0 = type <{ ptr, ptr, ptr, ptr, i8, [7 x i8] }>
%class.ciEnv = type <{ ptr, %class.Arena, ptr, ptr, ptr, ptr, %class.CHeapStringHolder, i8, [3 x i8], i32, i8, [3 x i8], i32, ptr, ptr, ptr, ptr, i32, [4 x i8], i64, i8, i8, i8, i8, i8, i8, i8, i8, ptr, ptr, ptr, ptr, ptr, ptr, ptr, ptr, ptr, [1025 x i8], [7 x i8] }>
%class.Arena = type { i8, i8, i64, ptr, ptr, ptr, ptr }
%class.CHeapStringHolder = type { ptr }
%class.DebugInformationRecorder = type <{ ptr, i8, [7 x i8], ptr, ptr, ptr, ptr, ptr, ptr, i32, i32, i32, [4 x i8] }>

; Function Attrs: mustprogress nounwind uwtable
define linkonce_odr hidden noundef ptr @_ZN5ciEnv10debug_infoEv(ptr noundef nonnull align 8 dereferenceable(1265) %0) #1 comdat align 2 {
  %2 = alloca ptr, align 8
  store ptr %0, ptr %2, align 8
  %3 = load ptr, ptr %2, align 8
  %4 = getelementptr inbounds %class.ciEnv, ptr %3, i32 0, i32 4
  %5 = load ptr, ptr %4, align 8
  ret ptr %5
}

; Function Attrs: mustprogress nounwind uwtable
define linkonce_odr hidden void @_ZN5ciEnv16set_dependenciesEP12Dependencies(ptr noundef nonnull align 8 dereferenceable(1265) %0, ptr noundef %1) #1 comdat align 2 {
  %3 = alloca ptr, align 8
  %4 = alloca ptr, align 8
  store ptr %0, ptr %3, align 8
  store ptr %1, ptr %4, align 8
  %5 = load ptr, ptr %3, align 8
  %6 = load ptr, ptr %4, align 8
  %7 = getelementptr inbounds %class.ciEnv, ptr %5, i32 0, i32 5
  store ptr %6, ptr %7, align 8
  ret void
}

; Function Attrs: mustprogress nounwind uwtable
define linkonce_odr hidden void @_ZN12DependenciesC2EP5ciEnv(ptr noundef nonnull align 8 dereferenceable(192) %0, ptr noundef %1) unnamed_addr #1 comdat align 2 {
  %3 = alloca ptr, align 8
  %4 = alloca ptr, align 8
  store ptr %0, ptr %3, align 8
  store ptr %1, ptr %4, align 8
  %5 = load ptr, ptr %3, align 8
  %6 = load ptr, ptr %4, align 8
  call void @_ZN12Dependencies10initializeEP5ciEnv(ptr noundef nonnull align 8 dereferenceable(192) %5, ptr noundef %6)
  ret void
}

; Function Attrs: mustprogress nounwind uwtable
define linkonce_odr hidden void @_ZN24DebugInformationRecorder11set_oopmapsEP9OopMapSet(ptr noundef nonnull align 8 dereferenceable(76) %0, ptr noundef %1) #1 comdat align 2 {
  %3 = alloca ptr, align 8
  %4 = alloca ptr, align 8
  store ptr %0, ptr %3, align 8
  store ptr %1, ptr %4, align 8
  %5 = load ptr, ptr %3, align 8
  %6 = load ptr, ptr %4, align 8
  %7 = getelementptr inbounds %class.DebugInformationRecorder, ptr %5, i32 0, i32 0
  store ptr %6, ptr %7, align 8
  ret void
}

; Function Attrs: mustprogress nounwind uwtable
define hidden noundef ptr @_ZNK11Compilation19debug_info_recorderEv(ptr noundef nonnull align 8 dereferenceable(704) %0) #1 align 2 {
  %2 = alloca ptr, align 8
  store ptr %0, ptr %2, align 8
  %3 = load ptr, ptr %2, align 8
  %4 = getelementptr inbounds %class.Compilation, ptr %3, i32 0, i32 5
  %5 = load ptr, ptr %4, align 8
  %6 = call noundef ptr @_ZN5ciEnv10debug_infoEv(ptr noundef nonnull align 8 dereferenceable(1265) %5)
  ret ptr %6
}

; Function Attrs: mustprogress nounwind uwtable
define linkonce_odr hidden void @_ZN5ciEnv14set_debug_infoEP24DebugInformationRecorder(ptr noundef nonnull align 8 dereferenceable(1265) %0, ptr noundef %1) #1 comdat align 2 {
  %3 = alloca ptr, align 8
  %4 = alloca ptr, align 8
  store ptr %0, ptr %3, align 8
  store ptr %1, ptr %4, align 8
  %5 = load ptr, ptr %3, align 8
  %6 = load ptr, ptr %4, align 8
  %7 = getelementptr inbounds %class.ciEnv, ptr %5, i32 0, i32 4
  store ptr %6, ptr %7, align 8
  ret void
}

; Function Attrs: mustprogress nounwind uwtable
define linkonce_odr hidden void @_ZN5ciEnv16set_oop_recorderEP11OopRecorder(ptr noundef nonnull align 8 dereferenceable(1265) %0, ptr noundef %1) #1 comdat align 2 {
  %3 = alloca ptr, align 8
  %4 = alloca ptr, align 8
  store ptr %0, ptr %3, align 8
  store ptr %1, ptr %4, align 8
  %5 = load ptr, ptr %3, align 8
  %6 = load ptr, ptr %4, align 8
  %7 = getelementptr inbounds %class.ciEnv, ptr %5, i32 0, i32 3
  store ptr %6, ptr %7, align 8
  ret void
}

; Function Attrs: mustprogress nounwind uwtable
define linkonce_odr hidden noundef ptr @_ZN5ciEnv5arenaEv(ptr noundef nonnull align 8 dereferenceable(1265) %0) #1 comdat align 2 {
  %2 = alloca ptr, align 8
  store ptr %0, ptr %2, align 8
  %3 = load ptr, ptr %2, align 8
  %4 = getelementptr inbounds %class.ciEnv, ptr %3, i32 0, i32 0
  %5 = load ptr, ptr %4, align 8
  ret ptr %5
}

; Function Attrs: mustprogress nounwind uwtable
define linkonce_odr hidden noundef ptr @_ZN11ResourceObjnwEm(i64 noundef %0) #1 comdat align 2 {
  %2 = alloca i64, align 8
  store i64 %0, ptr %2, align 8
  %3 = load i64, ptr %2, align 8
  %4 = call noundef ptr @_Z23resource_allocate_bytesmN17AllocFailStrategy13AllocFailEnumE(i64 noundef %3, i32 noundef 0)
  ret ptr %4
}

; Function Attrs: mustprogress nounwind uwtable
define hidden void @_ZN11Compilation10initializeEv(ptr noundef nonnull align 8 dereferenceable(704) %0) #1 align 2 {
  %2 = alloca ptr, align 8
  %3 = alloca ptr, align 8
  store ptr %0, ptr %2, align 8
  %4 = load ptr, ptr %2, align 8
  %5 = call noundef ptr @_ZN11ResourceObjnwEm(i64 noundef 88)
  %6 = getelementptr inbounds %class.Compilation, ptr %4, i32 0, i32 5
  %7 = load ptr, ptr %6, align 8
  %8 = call noundef ptr @_ZN5ciEnv5arenaEv(ptr noundef nonnull align 8 dereferenceable(1265) %7)
  call void @_ZN11OopRecorderC1EP5Arenab(ptr noundef nonnull align 8 dereferenceable(88) %5, ptr noundef %8, i1 noundef zeroext false)
  store ptr %5, ptr %3, align 8
  %9 = getelementptr inbounds %class.Compilation, ptr %4, i32 0, i32 5
  %10 = load ptr, ptr %9, align 8
  %11 = load ptr, ptr %3, align 8
  call void @_ZN5ciEnv16set_oop_recorderEP11OopRecorder(ptr noundef nonnull align 8 dereferenceable(1265) %10, ptr noundef %11)
  %12 = getelementptr inbounds %class.Compilation, ptr %4, i32 0, i32 5
  %13 = load ptr, ptr %12, align 8
  %14 = call noundef ptr @_ZN11ResourceObjnwEm(i64 noundef 80)
  %15 = load ptr, ptr %3, align 8
  call void @_ZN24DebugInformationRecorderC1EP11OopRecorder(ptr noundef nonnull align 8 dereferenceable(76) %14, ptr noundef %15)
  call void @_ZN5ciEnv14set_debug_infoEP24DebugInformationRecorder(ptr noundef nonnull align 8 dereferenceable(1265) %13, ptr noundef %14)
  %16 = call noundef ptr @_ZNK11Compilation19debug_info_recorderEv(ptr noundef nonnull align 8 dereferenceable(704) %4)
  %17 = call noundef ptr @_ZN11ResourceObjnwEm(i64 noundef 24)
  call void @_ZN9OopMapSetC1Ev(ptr noundef nonnull align 8 dereferenceable(24) %17)
  call void @_ZN24DebugInformationRecorder11set_oopmapsEP9OopMapSet(ptr noundef nonnull align 8 dereferenceable(76) %16, ptr noundef %17)
  %18 = getelementptr inbounds %class.Compilation, ptr %4, i32 0, i32 5
  %19 = load ptr, ptr %18, align 8
  %20 = call noundef ptr @_ZN11ResourceObjnwEm(i64 noundef 192)
  %21 = getelementptr inbounds %class.Compilation, ptr %4, i32 0, i32 5
  %22 = load ptr, ptr %21, align 8
  call void @_ZN12DependenciesC2EP5ciEnv(ptr noundef nonnull align 8 dereferenceable(192) %20, ptr noundef %22)
  call void @_ZN5ciEnv16set_dependenciesEP12Dependencies(ptr noundef nonnull align 8 dereferenceable(1265) %19, ptr noundef %20)
  ret void
}