; Function Attrs: mustprogress nounwind uwtable
define hidden void @_ZN11Compilation10initializeEv(ptr nocapture noundef nonnull readonly align 8 dereferenceable(704) %0) local_unnamed_addr #1 align 2 {
  %2 = tail call noundef ptr @_Z23resource_allocate_bytesmN17AllocFailStrategy13AllocFailEnumE(i64 noundef 88, i32 noundef 0) #7
  %3 = getelementptr inbounds i8, ptr %0, i64 32
  %4 = load ptr, ptr %3, align 8
  %5 = load ptr, ptr %4, align 8
  tail call void @_ZN11OopRecorderC1EP5Arenab(ptr noundef nonnull align 8 dereferenceable(88) %2, ptr noundef %5, i1 noundef zeroext false) #7
  %6 = load ptr, ptr %3, align 8
  %7 = getelementptr inbounds i8, ptr %6, i64 64
  store ptr %2, ptr %7, align 8
  %8 = load ptr, ptr %3, align 8
  %9 = tail call noundef ptr @_Z23resource_allocate_bytesmN17AllocFailStrategy13AllocFailEnumE(i64 noundef 80, i32 noundef 0) #7
  tail call void @_ZN24DebugInformationRecorderC1EP11OopRecorder(ptr noundef nonnull align 8 dereferenceable(76) %9, ptr noundef nonnull %2) #7
  %10 = getelementptr inbounds i8, ptr %8, i64 72
  store ptr %9, ptr %10, align 8
  %11 = load ptr, ptr %3, align 8
  %12 = getelementptr inbounds i8, ptr %11, i64 72
  %13 = load ptr, ptr %12, align 8
  %14 = tail call noundef ptr @_Z23resource_allocate_bytesmN17AllocFailStrategy13AllocFailEnumE(i64 noundef 24, i32 noundef 0) #7
  tail call void @_ZN9OopMapSetC1Ev(ptr noundef nonnull align 8 dereferenceable(24) %14) #7
  store ptr %14, ptr %13, align 8
  %15 = load ptr, ptr %3, align 8
  %16 = tail call noundef ptr @_Z23resource_allocate_bytesmN17AllocFailStrategy13AllocFailEnumE(i64 noundef 192, i32 noundef 0) #7
  %17 = load ptr, ptr %3, align 8
  tail call void @_ZN12Dependencies10initializeEP5ciEnv(ptr noundef nonnull align 8 dereferenceable(192) %16, ptr noundef %17) #7
  %18 = getelementptr inbounds i8, ptr %15, i64 80
  store ptr %16, ptr %18, align 8
  ret void
}